Certificate:
    Data:
        Version: 1 (0x0)
        Serial Number: 1 (0x1)
    Signature Algorithm: md5WithRSAEncryption
        Issuer: C=US, ST=CA, O=Open vSwitch, OU=controllerca, CN=OVS controllerca CA Certificate (2016  4\xE6\x9C\x88 10 11:22:15)
        Validity
            Not Before: Apr 10 02:22:15 2016 GMT
            Not After : Apr  8 02:22:15 2026 GMT
        Subject: C=US, ST=CA, O=Open vSwitch, OU=controllerca, CN=OVS controllerca CA Certificate (2016  4\xE6\x9C\x88 10 11:22:15)
        Subject Public Key Info:
            Public Key Algorithm: rsaEncryption
                Public-Key: (2048 bit)
                Modulus:
                    00:af:bd:70:59:de:83:18:c2:27:9b:a6:4c:ae:72:
                    79:92:e4:a7:93:4a:fc:37:f2:71:3a:8c:a0:d5:c4:
                    33:c1:87:63:33:3d:91:6e:1e:f3:74:61:b5:a2:16:
                    fe:c6:68:1f:d6:1a:2e:ce:69:3f:9b:27:83:06:4d:
                    77:82:d1:e2:71:8f:18:07:be:07:76:15:14:a5:00:
                    0b:df:1f:50:92:aa:78:9e:4d:ab:c0:5c:6d:9f:e0:
                    12:f3:bb:b0:58:9b:13:c3:d9:43:ee:20:20:1f:73:
                    b9:77:f2:51:6c:d0:5a:8f:6a:a8:1c:cc:0f:2d:46:
                    38:e6:13:86:78:a4:0b:7e:9a:ec:4e:58:f1:71:ca:
                    e4:92:b3:14:3c:8d:b2:0c:23:b3:cd:0d:4b:21:eb:
                    16:e3:30:06:66:a3:42:1b:ef:75:f0:d8:20:72:c8:
                    e6:7c:02:e8:c9:d8:00:d8:5c:87:bc:4e:cb:e2:7e:
                    7e:ad:62:de:5d:ab:20:20:35:30:76:38:e4:ce:68:
                    ca:76:55:46:f5:9e:ee:e6:db:3a:57:c9:5f:63:37:
                    48:d9:8c:27:5e:61:fe:c8:29:7a:58:64:ec:5e:2a:
                    9d:d3:60:7b:e9:af:d0:83:73:b8:66:b9:0f:f4:b5:
                    6a:6f:70:7a:0d:c5:42:54:53:79:6e:cb:82:4c:5d:
                    d4:77
                Exponent: 65537 (0x10001)
    Signature Algorithm: md5WithRSAEncryption
         4a:ea:ad:0c:a5:6f:86:da:b6:b7:b1:d5:ae:1e:97:07:d5:cf:
         60:1b:7c:21:51:5b:6e:a0:ed:02:0f:d3:2c:c3:9b:9a:45:24:
         1d:db:36:da:b7:bb:09:d9:ab:ea:0b:69:35:29:da:11:58:8c:
         0e:22:8d:cd:86:1e:9e:11:a6:90:e3:b5:08:04:a8:a8:96:66:
         9f:11:35:62:e5:93:00:e8:d8:65:28:ba:b8:d6:92:4d:70:ac:
         20:2b:ed:02:05:9a:f4:36:35:e8:1a:d2:96:7b:02:a4:8e:81:
         7d:e5:8b:0d:1f:3a:af:78:a9:c5:ec:66:cc:9a:89:8b:a9:c5:
         76:9a:76:bc:b2:75:a8:9a:e7:95:49:33:51:90:8f:49:4e:8f:
         84:6b:e4:25:6c:2f:71:34:62:4a:bf:1e:47:25:68:04:6c:be:
         8a:3e:f5:54:b2:ad:59:b6:12:28:b5:95:a5:21:1a:a0:a5:2d:
         56:3a:fa:cf:8d:d7:77:48:c6:d7:d5:ac:99:86:8f:e7:f1:cc:
         d1:79:f2:17:b6:f8:05:76:c8:ab:39:8d:c1:94:ac:49:20:c4:
         7f:5d:ec:12:c6:59:ed:d9:26:d8:ca:3a:7e:a2:2f:1a:a0:d0:
         69:26:fe:8c:29:88:5c:16:de:20:4e:19:d8:ae:9b:e3:3f:c7:
         19:c2:fa:5d
-----BEGIN CERTIFICATE-----
MIIDjDCCAnQCAQEwDQYJKoZIhvcNAQEEBQAwgYsxCzAJBgNVBAYTAlVTMQswCQYD
VQQIEwJDQTEVMBMGA1UEChMMT3BlbiB2U3dpdGNoMRUwEwYDVQQLEwxjb250cm9s
bGVyY2ExQTA/BgNVBAMUOE9WUyBjb250cm9sbGVyY2EgQ0EgQ2VydGlmaWNhdGUg
KDIwMTYgIDTmnIggMTAgMTE6MjI6MTUpMB4XDTE2MDQxMDAyMjIxNVoXDTI2MDQw
ODAyMjIxNVowgYsxCzAJBgNVBAYTAlVTMQswCQYDVQQIEwJDQTEVMBMGA1UEChMM
T3BlbiB2U3dpdGNoMRUwEwYDVQQLEwxjb250cm9sbGVyY2ExQTA/BgNVBAMUOE9W
UyBjb250cm9sbGVyY2EgQ0EgQ2VydGlmaWNhdGUgKDIwMTYgIDTmnIggMTAgMTE6
MjI6MTUpMIIBIjANBgkqhkiG9w0BAQEFAAOCAQ8AMIIBCgKCAQEAr71wWd6DGMIn
m6ZMrnJ5kuSnk0r8N/JxOoyg1cQzwYdjMz2Rbh7zdGG1ohb+xmgf1houzmk/myeD
Bk13gtHicY8YB74HdhUUpQAL3x9Qkqp4nk2rwFxtn+AS87uwWJsTw9lD7iAgH3O5
d/JRbNBaj2qoHMwPLUY45hOGeKQLfprsTljxccrkkrMUPI2yDCOzzQ1LIesW4zAG
ZqNCG+918NggcsjmfALoydgA2FyHvE7L4n5+rWLeXasgIDUwdjjkzmjKdlVG9Z7u
5ts6V8lfYzdI2YwnXmH+yCl6WGTsXiqd02B76a/Qg3O4ZrkP9LVqb3B6DcVCVFN5
bsuCTF3UdwIDAQABMA0GCSqGSIb3DQEBBAUAA4IBAQBK6q0MpW+G2ra3sdWuHpcH
1c9gG3whUVtuoO0CD9Msw5uaRSQd2zbat7sJ2avqC2k1KdoRWIwOIo3Nhh6eEaaQ
47UIBKiolmafETVi5ZMA6NhlKLq41pJNcKwgK+0CBZr0NjXoGtKWewKkjoF95YsN
HzqveKnF7GbMmomLqcV2mna8snWomueVSTNRkI9JTo+Ea+QlbC9xNGJKvx5HJWgE
bL6KPvVUsq1ZthIotZWlIRqgpS1WOvrPjdd3SMbX1ayZho/n8czRefIXtvgFdsir
OY3BlKxJIMR/XewSxlnt2SbYyjp+oi8aoNBpJv6MKYhcFt4gThnYrpvjP8cZwvpd
-----END CERTIFICATE-----
