Certificate:
    Data:
        Version: 1 (0x0)
        Serial Number: 2 (0x2)
    Signature Algorithm: md5WithRSAEncryption
        Issuer: C=US, ST=CA, O=Open vSwitch, OU=switchca, CN=OVS switchca CA Certificate (2016  4\xE6\x9C\x88 10 11:22:15)
        Validity
            Not Before: Apr 10 02:23:37 2016 GMT
            Not After : Apr  8 02:23:37 2026 GMT
        Subject: C=US, ST=CA, O=Open vSwitch, OU=Open vSwitch certifier, CN=sc id:f755a73c-258d-4d7a-a9da-e03131ba1066
        Subject Public Key Info:
            Public Key Algorithm: rsaEncryption
                Public-Key: (2048 bit)
                Modulus:
                    00:db:ab:34:c7:42:03:86:db:83:87:d8:90:a2:aa:
                    ad:93:b0:89:72:15:92:27:55:b4:29:77:63:2e:c3:
                    e7:5d:4d:9c:09:d2:2e:3d:72:3e:9b:7c:a4:b1:89:
                    a7:04:4e:78:fc:5f:b2:24:21:15:d1:c5:29:89:f2:
                    1e:a3:96:93:cc:8a:2c:21:b6:d6:22:c5:50:59:1b:
                    43:6e:ae:9d:f5:bd:cf:75:75:a8:2d:82:b8:13:06:
                    2b:ee:ce:fb:35:0b:bf:d5:e5:77:a9:4e:bf:23:98:
                    d6:ef:cc:9b:98:a1:f7:1c:8d:8c:60:86:e8:d2:d5:
                    cf:e4:97:39:1f:e9:26:61:8a:be:0c:4c:5e:f3:9a:
                    5a:8d:02:82:d7:b5:85:5d:40:af:f1:29:82:b0:a4:
                    14:30:6f:5b:fc:7e:02:c3:e1:cf:b8:de:72:36:e3:
                    bb:08:70:54:5f:39:c3:49:13:50:d6:19:95:9f:33:
                    7a:0b:1b:76:2a:30:d8:2c:14:ca:46:0f:3c:e9:92:
                    f2:3a:6a:db:b6:61:4c:0e:3c:e6:ad:cd:18:29:39:
                    0f:dc:8c:3e:f9:90:27:0c:f3:48:5f:1c:08:b8:bc:
                    10:3d:dd:63:43:c1:cf:60:c7:72:f0:14:c2:2b:e3:
                    7a:b8:97:be:e2:df:bf:36:5b:04:47:a5:04:d3:6e:
                    49:e1
                Exponent: 65537 (0x10001)
    Signature Algorithm: md5WithRSAEncryption
         22:91:9d:1c:53:88:cf:7f:8c:d6:07:93:01:e1:88:4c:6d:e3:
         1f:f7:ef:0b:5a:a4:6b:31:37:9b:6e:5f:ba:6d:55:de:b1:81:
         c0:91:10:1b:e6:3d:25:5b:06:06:5b:6b:ec:15:ce:6a:b5:06:
         9f:d9:8e:2b:ed:a6:21:83:17:2b:17:fc:bd:28:95:a3:53:2b:
         95:d7:67:08:ec:8a:7d:b5:9c:a7:87:0f:c5:7f:ee:11:41:75:
         bd:c7:5b:18:be:95:21:53:53:00:d5:c7:d9:78:82:7d:cd:60:
         58:cb:e4:f8:66:be:f0:79:c4:4d:1d:72:ab:9f:52:3b:b9:e0:
         72:de:35:4b:74:59:98:c4:18:c8:ad:42:fc:ed:41:96:c3:ee:
         c1:8a:1b:93:e5:1d:c4:ad:23:0c:da:8a:6b:82:71:5d:d1:bf:
         9b:37:5c:ac:91:64:99:55:86:68:13:ce:c0:66:f0:2e:27:83:
         3a:02:29:2e:08:e4:84:8d:b7:37:83:17:ec:96:b1:eb:00:41:
         de:39:3a:2e:bf:2c:4f:85:22:2a:22:d3:0c:d4:02:bc:5e:4e:
         8a:3a:95:db:f3:b1:9b:79:23:4a:48:28:3b:6c:42:21:f8:ab:
         56:29:83:f4:f8:86:0f:77:ce:eb:74:27:ff:12:d8:17:50:ad:
         68:2c:1e:91
-----BEGIN CERTIFICATE-----
MIIDgDCCAmgCAQIwDQYJKoZIhvcNAQEEBQAwgYMxCzAJBgNVBAYTAlVTMQswCQYD
VQQIEwJDQTEVMBMGA1UEChMMT3BlbiB2U3dpdGNoMREwDwYDVQQLEwhzd2l0Y2hj
YTE9MDsGA1UEAxQ0T1ZTIHN3aXRjaGNhIENBIENlcnRpZmljYXRlICgyMDE2ICA0
5pyIIDEwIDExOjIyOjE1KTAeFw0xNjA0MTAwMjIzMzdaFw0yNjA0MDgwMjIzMzda
MIGHMQswCQYDVQQGEwJVUzELMAkGA1UECBMCQ0ExFTATBgNVBAoTDE9wZW4gdlN3
aXRjaDEfMB0GA1UECxMWT3BlbiB2U3dpdGNoIGNlcnRpZmllcjEzMDEGA1UEAxMq
c2MgaWQ6Zjc1NWE3M2MtMjU4ZC00ZDdhLWE5ZGEtZTAzMTMxYmExMDY2MIIBIjAN
BgkqhkiG9w0BAQEFAAOCAQ8AMIIBCgKCAQEA26s0x0IDhtuDh9iQoqqtk7CJchWS
J1W0KXdjLsPnXU2cCdIuPXI+m3yksYmnBE54/F+yJCEV0cUpifIeo5aTzIosIbbW
IsVQWRtDbq6d9b3PdXWoLYK4EwYr7s77NQu/1eV3qU6/I5jW78ybmKH3HI2MYIbo
0tXP5Jc5H+kmYYq+DExe85pajQKC17WFXUCv8SmCsKQUMG9b/H4Cw+HPuN5yNuO7
CHBUXznDSRNQ1hmVnzN6Cxt2KjDYLBTKRg886ZLyOmrbtmFMDjzmrc0YKTkP3Iw+
+ZAnDPNIXxwIuLwQPd1jQ8HPYMdy8BTCK+N6uJe+4t+/NlsER6UE025J4QIDAQAB
MA0GCSqGSIb3DQEBBAUAA4IBAQAikZ0cU4jPf4zWB5MB4YhMbeMf9+8LWqRrMTeb
bl+6bVXesYHAkRAb5j0lWwYGW2vsFc5qtQaf2Y4r7aYhgxcrF/y9KJWjUyuV12cI
7Ip9tZynhw/Ff+4RQXW9x1sYvpUhU1MA1cfZeIJ9zWBYy+T4Zr7wecRNHXKrn1I7
ueBy3jVLdFmYxBjIrUL87UGWw+7BihuT5R3ErSMM2oprgnFd0b+bN1yskWSZVYZo
E87AZvAuJ4M6AikuCOSEjbc3gxfslrHrAEHeOTouvyxPhSIqItMM1AK8Xk6KOpXb
87GbeSNKSCg7bEIh+KtWKYP0+IYPd87rdCf/EtgXUK1oLB6R
-----END CERTIFICATE-----
